target datalayout = "e-m:e-p270:32:32-p271:32:32-p272:64:64-i64:64-i128:128-f80:128-n8:16:32:64-S128"
target triple = "x86_64-unknown-linux-gnu"

%"class.google::protobuf::TextFormat::Printer" = type { i32, i8, i8, i8, i8, i8, i8, i32, i8, i8, i8, i64, %"class.std::unique_ptr", %"class.absl::lts_20230802::flat_hash_map", %"class.absl::lts_20230802::flat_hash_map.14", ptr }
%"class.std::unique_ptr" = type { %"struct.std::__uniq_ptr_data" }
%"struct.std::__uniq_ptr_data" = type { %"class.std::__uniq_ptr_impl" }
%"class.std::__uniq_ptr_impl" = type { %"class.std::tuple" }
%"class.std::tuple" = type { %"struct.std::_Tuple_impl" }
%"struct.std::_Tuple_impl" = type { %"struct.std::_Head_base.3" }
%"struct.std::_Head_base.3" = type { ptr }
%"class.absl::lts_20230802::flat_hash_map" = type { %"class.absl::lts_20230802::container_internal::raw_hash_map" }
%"class.absl::lts_20230802::container_internal::raw_hash_map" = type { %"class.absl::lts_20230802::container_internal::raw_hash_set" }
%"class.absl::lts_20230802::container_internal::raw_hash_set" = type { %"class.absl::lts_20230802::container_internal::CompressedTuple" }
%"class.absl::lts_20230802::container_internal::CompressedTuple" = type { %"struct.absl::lts_20230802::container_internal::internal_compressed_tuple::CompressedTupleImpl" }
%"struct.absl::lts_20230802::container_internal::internal_compressed_tuple::CompressedTupleImpl" = type { %"struct.absl::lts_20230802::container_internal::internal_compressed_tuple::Storage" }
%"struct.absl::lts_20230802::container_internal::internal_compressed_tuple::Storage" = type { %"class.absl::lts_20230802::container_internal::CommonFields" }
%"class.absl::lts_20230802::container_internal::CommonFields" = type { ptr, ptr, i64, %"class.absl::lts_20230802::container_internal::CompressedTuple.4" }
%"class.absl::lts_20230802::container_internal::CompressedTuple.4" = type { %"struct.absl::lts_20230802::container_internal::internal_compressed_tuple::CompressedTupleImpl.5" }
%"struct.absl::lts_20230802::container_internal::internal_compressed_tuple::CompressedTupleImpl.5" = type { %"struct.absl::lts_20230802::container_internal::internal_compressed_tuple::Storage.6" }
%"struct.absl::lts_20230802::container_internal::internal_compressed_tuple::Storage.6" = type { i64 }
%"class.absl::lts_20230802::flat_hash_map.14" = type { %"class.absl::lts_20230802::container_internal::raw_hash_map.15" }
%"class.absl::lts_20230802::container_internal::raw_hash_map.15" = type { %"class.absl::lts_20230802::container_internal::raw_hash_set.16" }
%"class.absl::lts_20230802::container_internal::raw_hash_set.16" = type { %"class.absl::lts_20230802::container_internal::CompressedTuple.17" }
%"class.absl::lts_20230802::container_internal::CompressedTuple.17" = type { %"struct.absl::lts_20230802::container_internal::internal_compressed_tuple::CompressedTupleImpl.18" }
%"struct.absl::lts_20230802::container_internal::internal_compressed_tuple::CompressedTupleImpl.18" = type { %"struct.absl::lts_20230802::container_internal::internal_compressed_tuple::Storage" }
%"class.google::protobuf::TextFormat::BaseTextGenerator" = type { ptr }
%"class.google::protobuf::TextFormat::Printer::TextGenerator" = type { %"class.google::protobuf::TextFormat::BaseTextGenerator", ptr, ptr, i32, i8, i8, i8, i32, i32 }

@_ZN6google8protobuf10TextFormat7PrinterC1Ev = unnamed_addr alias void (ptr), ptr @_ZN6google8protobuf10TextFormat7PrinterC2Ev

; Function Attrs: mustprogress nounwind uwtable
define linkonce_odr hidden void @_ZN6google8protobuf10TextFormat17BaseTextGeneratorC2Ev(ptr noundef nonnull align 8 dereferenceable(8) %this) unnamed_addr #4 comdat align 2 {
entry:
  %this.addr = alloca ptr, align 8
  store ptr %this, ptr %this.addr, align 8
  %this1 = load ptr, ptr %this.addr, align 8
  store ptr getelementptr inbounds ({ [10 x ptr] }, ptr @_ZTVN6google8protobuf10TextFormat17BaseTextGeneratorE, i32 0, i32 0, i32 2), ptr %this1, align 8
  ret void
}

; Function Attrs: mustprogress nounwind uwtable
define linkonce_odr hidden noundef zeroext i1 @_ZNK6google8protobuf10TextFormat7Printer13TextGenerator6failedEv(ptr noundef nonnull align 8 dereferenceable(40) %this) #4 comdat align 2 {
entry:
  %this.addr = alloca ptr, align 8
  store ptr %this, ptr %this.addr, align 8
  %this1 = load ptr, ptr %this.addr, align 8
  %failed_ = getelementptr inbounds %"class.google::protobuf::TextFormat::Printer::TextGenerator", ptr %this1, i32 0, i32 5
  %0 = load i8, ptr %failed_, align 1
  %tobool = trunc i8 %0 to i1
  ret i1 %tobool
}

; Function Attrs: mustprogress nounwind uwtable
define linkonce_odr hidden void @_ZN6google8protobuf10TextFormat7Printer13TextGeneratorC2EPNS0_2io20ZeroCopyOutputStreamEi(ptr noundef nonnull align 8 dereferenceable(40) %this, ptr noundef %output, i32 noundef %initial_indent_level) unnamed_addr #4 comdat align 2 {
entry:
  %this.addr = alloca ptr, align 8
  %output.addr = alloca ptr, align 8
  %initial_indent_level.addr = alloca i32, align 4
  store ptr %this, ptr %this.addr, align 8
  store ptr %output, ptr %output.addr, align 8
  store i32 %initial_indent_level, ptr %initial_indent_level.addr, align 4
  %this1 = load ptr, ptr %this.addr, align 8
  call void @_ZN6google8protobuf10TextFormat17BaseTextGeneratorC2Ev(ptr noundef nonnull align 8 dereferenceable(8) %this1) #3
  store ptr getelementptr inbounds ({ [10 x ptr] }, ptr @_ZTVN6google8protobuf10TextFormat7Printer13TextGeneratorE, i32 0, i32 0, i32 2), ptr %this1, align 8
  %output_ = getelementptr inbounds %"class.google::protobuf::TextFormat::Printer::TextGenerator", ptr %this1, i32 0, i32 1
  %0 = load ptr, ptr %output.addr, align 8
  store ptr %0, ptr %output_, align 8
  %buffer_ = getelementptr inbounds %"class.google::protobuf::TextFormat::Printer::TextGenerator", ptr %this1, i32 0, i32 2
  store ptr null, ptr %buffer_, align 8
  %buffer_size_ = getelementptr inbounds %"class.google::protobuf::TextFormat::Printer::TextGenerator", ptr %this1, i32 0, i32 3
  store i32 0, ptr %buffer_size_, align 8
  %at_start_of_line_ = getelementptr inbounds %"class.google::protobuf::TextFormat::Printer::TextGenerator", ptr %this1, i32 0, i32 4
  store i8 1, ptr %at_start_of_line_, align 4
  %failed_ = getelementptr inbounds %"class.google::protobuf::TextFormat::Printer::TextGenerator", ptr %this1, i32 0, i32 5
  store i8 0, ptr %failed_, align 1
  %insert_silent_marker_ = getelementptr inbounds %"class.google::protobuf::TextFormat::Printer::TextGenerator", ptr %this1, i32 0, i32 6
  store i8 0, ptr %insert_silent_marker_, align 2
  %indent_level_ = getelementptr inbounds %"class.google::protobuf::TextFormat::Printer::TextGenerator", ptr %this1, i32 0, i32 7
  %1 = load i32, ptr %initial_indent_level.addr, align 4
  store i32 %1, ptr %indent_level_, align 8
  %initial_indent_level_ = getelementptr inbounds %"class.google::protobuf::TextFormat::Printer::TextGenerator", ptr %this1, i32 0, i32 8
  %2 = load i32, ptr %initial_indent_level.addr, align 4
  store i32 %2, ptr %initial_indent_level_, align 4
  ret void
}

; Function Attrs: mustprogress uwtable
define noundef zeroext i1 @_ZNK6google8protobuf10TextFormat7Printer18PrintUnknownFieldsERKNS0_15UnknownFieldSetEPNS0_2io20ZeroCopyOutputStreamE(ptr noundef nonnull align 8 dereferenceable(112) %this, ptr noundef nonnull align 8 dereferenceable(24) %unknown_fields, ptr noundef %output) #5 align 2 personality ptr @__gxx_personality_v0 {
entry:
  %this.addr = alloca ptr, align 8
  %unknown_fields.addr = alloca ptr, align 8
  %output.addr = alloca ptr, align 8
  %generator = alloca %"class.google::protobuf::TextFormat::Printer::TextGenerator", align 8
  %exn.slot = alloca ptr, align 8
  %ehselector.slot = alloca i32, align 4
  store ptr %this, ptr %this.addr, align 8
  store ptr %unknown_fields, ptr %unknown_fields.addr, align 8
  store ptr %output, ptr %output.addr, align 8
  %this1 = load ptr, ptr %this.addr, align 8
  %0 = load ptr, ptr %output.addr, align 8
  %initial_indent_level_ = getelementptr inbounds %"class.google::protobuf::TextFormat::Printer", ptr %this1, i32 0, i32 0
  %1 = load i32, ptr %initial_indent_level_, align 8
  call void @_ZN6google8protobuf10TextFormat7Printer13TextGeneratorC2EPNS0_2io20ZeroCopyOutputStreamEi(ptr noundef nonnull align 8 dereferenceable(40) %generator, ptr noundef %0, i32 noundef %1)
  %2 = load ptr, ptr %unknown_fields.addr, align 8
  invoke void @_ZNK6google8protobuf10TextFormat7Printer18PrintUnknownFieldsERKNS0_15UnknownFieldSetEPNS1_17BaseTextGeneratorEi(ptr noundef nonnull align 8 dereferenceable(112) %this1, ptr noundef nonnull align 8 dereferenceable(24) %2, ptr noundef %generator, i32 noundef 10)
          to label %invoke.cont unwind label %lpad

invoke.cont:                                      ; preds = %entry
  %call = invoke noundef zeroext i1 @_ZNK6google8protobuf10TextFormat7Printer13TextGenerator6failedEv(ptr noundef nonnull align 8 dereferenceable(40) %generator)
          to label %invoke.cont2 unwind label %lpad

invoke.cont2:                                     ; preds = %invoke.cont
  %lnot = xor i1 %call, true
  call void @_ZN6google8protobuf10TextFormat7Printer13TextGeneratorD2Ev(ptr noundef nonnull align 8 dereferenceable(40) %generator) #3
  ret i1 %lnot

lpad:                                             ; preds = %invoke.cont, %entry
  %3 = landingpad { ptr, i32 }
          cleanup
  %4 = extractvalue { ptr, i32 } %3, 0
  store ptr %4, ptr %exn.slot, align 8
  %5 = extractvalue { ptr, i32 } %3, 1
  store i32 %5, ptr %ehselector.slot, align 4
  call void @_ZN6google8protobuf10TextFormat7Printer13TextGeneratorD2Ev(ptr noundef nonnull align 8 dereferenceable(40) %generator) #3
  br label %eh.resume

eh.resume:                                        ; preds = %lpad
  %exn = load ptr, ptr %exn.slot, align 8
  %sel = load i32, ptr %ehselector.slot, align 4
  %lpad.val = insertvalue { ptr, i32 } poison, ptr %exn, 0
  %lpad.val3 = insertvalue { ptr, i32 } %lpad.val, i32 %sel, 1
  resume { ptr, i32 } %lpad.val3
}

; Function Attrs: mustprogress uwtable
define noundef zeroext i1 @_ZN6google8protobuf10TextFormat18PrintUnknownFieldsERKNS0_15UnknownFieldSetEPNS0_2io20ZeroCopyOutputStreamE(ptr noundef nonnull align 8 dereferenceable(24) %unknown_fields, ptr noundef %output) #5 align 2 personality ptr @__gxx_personality_v0 {
entry:
  %unknown_fields.addr = alloca ptr, align 8
  %output.addr = alloca ptr, align 8
  %ref.tmp = alloca %"class.google::protobuf::TextFormat::Printer", align 8
  %exn.slot = alloca ptr, align 8
  %ehselector.slot = alloca i32, align 4
  store ptr %unknown_fields, ptr %unknown_fields.addr, align 8
  store ptr %output, ptr %output.addr, align 8
  call void @_ZN6google8protobuf10TextFormat7PrinterC1Ev(ptr noundef nonnull align 8 dereferenceable(112) %ref.tmp)
  %0 = load ptr, ptr %unknown_fields.addr, align 8
  %1 = load ptr, ptr %output.addr, align 8
  %call = invoke noundef zeroext i1 @_ZNK6google8protobuf10TextFormat7Printer18PrintUnknownFieldsERKNS0_15UnknownFieldSetEPNS0_2io20ZeroCopyOutputStreamE(ptr noundef nonnull align 8 dereferenceable(112) %ref.tmp, ptr noundef nonnull align 8 dereferenceable(24) %0, ptr noundef %1)
          to label %invoke.cont unwind label %lpad

invoke.cont:                                      ; preds = %entry
  call void @_ZN6google8protobuf10TextFormat7PrinterD2Ev(ptr noundef nonnull align 8 dereferenceable(112) %ref.tmp) #3
  ret i1 %call

lpad:                                             ; preds = %entry
  %2 = landingpad { ptr, i32 }
          cleanup
  %3 = extractvalue { ptr, i32 } %2, 0
  store ptr %3, ptr %exn.slot, align 8
  %4 = extractvalue { ptr, i32 } %2, 1
  store i32 %4, ptr %ehselector.slot, align 4
  call void @_ZN6google8protobuf10TextFormat7PrinterD2Ev(ptr noundef nonnull align 8 dereferenceable(112) %ref.tmp) #3
  br label %eh.resume

eh.resume:                                        ; preds = %lpad
  %exn = load ptr, ptr %exn.slot, align 8
  %sel = load i32, ptr %ehselector.slot, align 4
  %lpad.val = insertvalue { ptr, i32 } poison, ptr %exn, 0
  %lpad.val1 = insertvalue { ptr, i32 } %lpad.val, i32 %sel, 1
  resume { ptr, i32 } %lpad.val1
}