; Function Attrs: mustprogress uwtable
define noundef zeroext i1 @_ZN6google8protobuf10TextFormat18PrintUnknownFieldsERKNS0_15UnknownFieldSetEPNS0_2io20ZeroCopyOutputStreamE(ptr nocapture noundef nonnull readonly align 8 dereferenceable(24) %unknown_fields, ptr noundef %output) local_unnamed_addr #4 align 2 personality ptr @__gxx_personality_v0 {
entry:
  %generator.i = alloca %"class.google::protobuf::TextFormat::Printer::TextGenerator", align 8
  %ref.tmp = alloca %"class.google::protobuf::TextFormat::Printer", align 8
  call void @_ZN6google8protobuf10TextFormat7PrinterC1Ev(ptr noundef nonnull align 8 dereferenceable(112) %ref.tmp)
  call void @llvm.lifetime.start.p0(i64 40, ptr nonnull %generator.i)
  %0 = load i32, ptr %ref.tmp, align 8
  store ptr getelementptr inbounds ({ [10 x ptr] }, ptr @_ZTVN6google8protobuf10TextFormat7Printer13TextGeneratorE, i64 0, i32 0, i64 2), ptr %generator.i, align 8
  %output_.i.i = getelementptr inbounds i8, ptr %generator.i, i64 8
  store ptr %output, ptr %output_.i.i, align 8
  %buffer_.i.i = getelementptr inbounds i8, ptr %generator.i, i64 16
  store ptr null, ptr %buffer_.i.i, align 8
  %buffer_size_.i.i = getelementptr inbounds i8, ptr %generator.i, i64 24
  store i32 0, ptr %buffer_size_.i.i, align 8
  %at_start_of_line_.i.i = getelementptr inbounds i8, ptr %generator.i, i64 28
  store i8 1, ptr %at_start_of_line_.i.i, align 4
  %failed_.i.i = getelementptr inbounds i8, ptr %generator.i, i64 29
  store i8 0, ptr %failed_.i.i, align 1
  %insert_silent_marker_.i.i = getelementptr inbounds i8, ptr %generator.i, i64 30
  store i8 0, ptr %insert_silent_marker_.i.i, align 2
  %indent_level_.i.i = getelementptr inbounds i8, ptr %generator.i, i64 32
  store i32 %0, ptr %indent_level_.i.i, align 8
  %initial_indent_level_.i.i = getelementptr inbounds i8, ptr %generator.i, i64 36
  store i32 %0, ptr %initial_indent_level_.i.i, align 4
  invoke void @_ZNK6google8protobuf10TextFormat7Printer18PrintUnknownFieldsERKNS0_15UnknownFieldSetEPNS1_17BaseTextGeneratorEi(ptr noundef nonnull align 8 dereferenceable(112) %ref.tmp, ptr noundef nonnull align 8 dereferenceable(24) %unknown_fields, ptr noundef nonnull %generator.i, i32 noundef 10)
          to label %invoke.cont.i unwind label %lpad.i

invoke.cont.i:                                    ; preds = %entry
  %1 = load i8, ptr %failed_.i.i, align 1
  %2 = and i8 %1, 1
  store ptr getelementptr inbounds ({ [10 x ptr] }, ptr @_ZTVN6google8protobuf10TextFormat7Printer13TextGeneratorE, i64 0, i32 0, i64 2), ptr %generator.i, align 8
  %tobool.not.i.i = icmp eq i8 %2, 0
  br i1 %tobool.not.i.i, label %if.then.i.i, label %invoke.cont

if.then.i.i:                                      ; preds = %invoke.cont.i
  %3 = load ptr, ptr %output_.i.i, align 8
  %4 = load i32, ptr %buffer_size_.i.i, align 8
  %vtable.i.i = load ptr, ptr %3, align 8
  %vfn.i.i = getelementptr inbounds i8, ptr %vtable.i.i, i64 24
  %5 = load ptr, ptr %vfn.i.i, align 8
  invoke void %5(ptr noundef nonnull align 8 dereferenceable(8) %3, i32 noundef %4)
          to label %invoke.cont unwind label %terminate.lpad.i.i

terminate.lpad.i.i:                               ; preds = %if.then.i.i
  %6 = landingpad { ptr, i32 }
          catch ptr null
  %7 = extractvalue { ptr, i32 } %6, 0
  call void @__clang_call_terminate(ptr %7) #36
  unreachable

lpad.i:                                           ; preds = %entry
  %8 = landingpad { ptr, i32 }
          cleanup
  call void @_ZN6google8protobuf10TextFormat7Printer13TextGeneratorD2Ev(ptr noundef nonnull align 8 dereferenceable(40) %generator.i) #34
  call void @_ZN6google8protobuf10TextFormat7PrinterD2Ev(ptr noundef nonnull align 8 dereferenceable(112) %ref.tmp) #34
  resume { ptr, i32 } %8

invoke.cont:                                      ; preds = %if.then.i.i, %invoke.cont.i
  call void @llvm.lifetime.end.p0(i64 40, ptr nonnull %generator.i)
  %custom_message_printers_.i = getelementptr inbounds i8, ptr %ref.tmp, i64 72
  %capacity_.i.i.i.i.i.i = getelementptr inbounds i8, ptr %ref.tmp, i64 88
  %9 = load i64, ptr %capacity_.i.i.i.i.i.i, align 8
  %tobool.not.i.i.i.i = icmp eq i64 %9, 0
  br i1 %tobool.not.i.i.i.i, label %_ZN4absl12lts_2023080213flat_hash_mapIPKN6google8protobuf10DescriptorESt10unique_ptrIKNS3_10TextFormat14MessagePrinterESt14default_deleteISA_EENS0_18container_internal6HashEqIS6_vE4HashENSG_2EqESaISt4pairIKS6_SD_EEED2Ev.exit.i, label %if.end.i.i.i.i

if.end.i.i.i.i:                                   ; preds = %invoke.cont
  %10 = load ptr, ptr %custom_message_printers_.i, align 8
  %slots_.i.i.i.i.i.i.i = getelementptr inbounds i8, ptr %ref.tmp, i64 80
  %11 = load ptr, ptr %slots_.i.i.i.i.i.i.i, align 8
  br label %for.body.i.i.i.i.i

for.body.i.i.i.i.i:                               ; preds = %for.inc.i.i.i.i.i, %if.end.i.i.i.i
  %i.05.i.i.i.i.i = phi i64 [ %inc.i.i.i.i.i, %for.inc.i.i.i.i.i ], [ 0, %if.end.i.i.i.i ]
  %arrayidx.i.i.i.i.i = getelementptr inbounds i8, ptr %10, i64 %i.05.i.i.i.i.i
  %12 = load i8, ptr %arrayidx.i.i.i.i.i, align 1
  %cmp.i.i.i.i.i.i = icmp sgt i8 %12, -1
  br i1 %cmp.i.i.i.i.i.i, label %if.then.i.i.i.i.i, label %for.inc.i.i.i.i.i

if.then.i.i.i.i.i:                                ; preds = %for.body.i.i.i.i.i
  %second.i.i.i.i.i.i.i.i.i.i.i = getelementptr inbounds %"union.absl::lts_20230802::container_internal::map_slot_type.218", ptr %11, i64 %i.05.i.i.i.i.i, i32 0, i32 1
  %13 = load ptr, ptr %second.i.i.i.i.i.i.i.i.i.i.i, align 8
  %cmp.not.i.i.i.i.i.i.i.i.i.i.i.i = icmp eq ptr %13, null
  br i1 %cmp.not.i.i.i.i.i.i.i.i.i.i.i.i, label %_ZN4absl12lts_2023080218container_internal20common_policy_traitsINS1_17FlatHashMapPolicyIPKN6google8protobuf10DescriptorESt10unique_ptrIKNS5_10TextFormat14MessagePrinterESt14default_deleteISC_EEEEvE7destroyISaISt4pairIKS8_SF_EEEEvPT_PNS1_13map_slot_typeIS8_SF_EE.exit.i.i.i.i.i, label %_ZNKSt14default_deleteIKN6google8protobuf10TextFormat14MessagePrinterEEclEPS4_.exit.i.i.i.i.i.i.i.i.i.i.i.i

_ZNKSt14default_deleteIKN6google8protobuf10TextFormat14MessagePrinterEEclEPS4_.exit.i.i.i.i.i.i.i.i.i.i.i.i: ; preds = %if.then.i.i.i.i.i
  %vtable.i.i.i.i.i.i.i.i.i.i.i.i.i = load ptr, ptr %13, align 8
  %vfn.i.i.i.i.i.i.i.i.i.i.i.i.i = getelementptr inbounds i8, ptr %vtable.i.i.i.i.i.i.i.i.i.i.i.i.i, i64 8
  %14 = load ptr, ptr %vfn.i.i.i.i.i.i.i.i.i.i.i.i.i, align 8
  call void %14(ptr noundef nonnull align 8 dereferenceable(8) %13) #34
  br label %_ZN4absl12lts_2023080218container_internal20common_policy_traitsINS1_17FlatHashMapPolicyIPKN6google8protobuf10DescriptorESt10unique_ptrIKNS5_10TextFormat14MessagePrinterESt14default_deleteISC_EEEEvE7destroyISaISt4pairIKS8_SF_EEEEvPT_PNS1_13map_slot_typeIS8_SF_EE.exit.i.i.i.i.i

_ZN4absl12lts_2023080218container_internal20common_policy_traitsINS1_17FlatHashMapPolicyIPKN6google8protobuf10DescriptorESt10unique_ptrIKNS5_10TextFormat14MessagePrinterESt14default_deleteISC_EEEEvE7destroyISaISt4pairIKS8_SF_EEEEvPT_PNS1_13map_slot_typeIS8_SF_EE.exit.i.i.i.i.i: ; preds = %_ZNKSt14default_deleteIKN6google8protobuf10TextFormat14MessagePrinterEEclEPS4_.exit.i.i.i.i.i.i.i.i.i.i.i.i, %if.then.i.i.i.i.i
  store ptr null, ptr %second.i.i.i.i.i.i.i.i.i.i.i, align 8
  br label %for.inc.i.i.i.i.i

for.inc.i.i.i.i.i:                                ; preds = %_ZN4absl12lts_2023080218container_internal20common_policy_traitsINS1_17FlatHashMapPolicyIPKN6google8protobuf10DescriptorESt10unique_ptrIKNS5_10TextFormat14MessagePrinterESt14default_deleteISC_EEEEvE7destroyISaISt4pairIKS8_SF_EEEEvPT_PNS1_13map_slot_typeIS8_SF_EE.exit.i.i.i.i.i, %for.body.i.i.i.i.i
  %inc.i.i.i.i.i = add nuw i64 %i.05.i.i.i.i.i, 1
  %cmp.not.i.i.i.i.i = icmp eq i64 %inc.i.i.i.i.i, %9
  br i1 %cmp.not.i.i.i.i.i, label %invoke.cont13.i.i.i.i, label %for.body.i.i.i.i.i, !llvm.loop !4

invoke.cont13.i.i.i.i:                            ; preds = %for.inc.i.i.i.i.i
  %15 = load ptr, ptr %custom_message_printers_.i, align 8
  %add.ptr.i.i.i.i.i = getelementptr inbounds i8, ptr %15, i64 -8
  call void @_ZdlPv(ptr noundef nonnull %add.ptr.i.i.i.i.i) #35
  br label %_ZN4absl12lts_2023080213flat_hash_mapIPKN6google8protobuf10DescriptorESt10unique_ptrIKNS3_10TextFormat14MessagePrinterESt14default_deleteISA_EENS0_18container_internal6HashEqIS6_vE4HashENSG_2EqESaISt4pairIKS6_SD_EEED2Ev.exit.i

_ZN4absl12lts_2023080213flat_hash_mapIPKN6google8protobuf10DescriptorESt10unique_ptrIKNS3_10TextFormat14MessagePrinterESt14default_deleteISA_EENS0_18container_internal6HashEqIS6_vE4HashENSG_2EqESaISt4pairIKS6_SD_EEED2Ev.exit.i: ; preds = %invoke.cont13.i.i.i.i, %invoke.cont
  %custom_printers_.i = getelementptr inbounds i8, ptr %ref.tmp, i64 40
  %capacity_.i.i.i.i.i1.i = getelementptr inbounds i8, ptr %ref.tmp, i64 56
  %16 = load i64, ptr %capacity_.i.i.i.i.i1.i, align 8
  %tobool.not.i.i.i2.i = icmp eq i64 %16, 0
  br i1 %tobool.not.i.i.i2.i, label %_ZN4absl12lts_2023080213flat_hash_mapIPKN6google8protobuf15FieldDescriptorESt10unique_ptrIKNS3_10TextFormat21FastFieldValuePrinterESt14default_deleteISA_EENS0_18container_internal6HashEqIS6_vE4HashENSG_2EqESaISt4pairIKS6_SD_EEED2Ev.exit.i, label %if.end.i.i.i3.i

if.end.i.i.i3.i:                                  ; preds = %_ZN4absl12lts_2023080213flat_hash_mapIPKN6google8protobuf10DescriptorESt10unique_ptrIKNS3_10TextFormat14MessagePrinterESt14default_deleteISA_EENS0_18container_internal6HashEqIS6_vE4HashENSG_2EqESaISt4pairIKS6_SD_EEED2Ev.exit.i
  %17 = load ptr, ptr %custom_printers_.i, align 8
  %slots_.i.i.i.i.i.i4.i = getelementptr inbounds i8, ptr %ref.tmp, i64 48
  %18 = load ptr, ptr %slots_.i.i.i.i.i.i4.i, align 8
  br label %for.body.i.i.i.i5.i

for.body.i.i.i.i5.i:                              ; preds = %for.inc.i.i.i.i9.i, %if.end.i.i.i3.i
  %i.05.i.i.i.i6.i = phi i64 [ %inc.i.i.i.i10.i, %for.inc.i.i.i.i9.i ], [ 0, %if.end.i.i.i3.i ]
  %arrayidx.i.i.i.i7.i = getelementptr inbounds i8, ptr %17, i64 %i.05.i.i.i.i6.i
  %19 = load i8, ptr %arrayidx.i.i.i.i7.i, align 1
  %cmp.i.i.i.i.i8.i = icmp sgt i8 %19, -1
  br i1 %cmp.i.i.i.i.i8.i, label %if.then.i.i.i.i14.i, label %for.inc.i.i.i.i9.i

if.then.i.i.i.i14.i:                              ; preds = %for.body.i.i.i.i5.i
  %second.i.i.i.i.i.i.i.i.i.i15.i = getelementptr inbounds %"union.absl::lts_20230802::container_internal::map_slot_type.223", ptr %18, i64 %i.05.i.i.i.i6.i, i32 0, i32 1
  %20 = load ptr, ptr %second.i.i.i.i.i.i.i.i.i.i15.i, align 8
  %cmp.not.i.i.i.i.i.i.i.i.i.i.i16.i = icmp eq ptr %20, null
  br i1 %cmp.not.i.i.i.i.i.i.i.i.i.i.i16.i, label %_ZN4absl12lts_2023080218container_internal20common_policy_traitsINS1_17FlatHashMapPolicyIPKN6google8protobuf15FieldDescriptorESt10unique_ptrIKNS5_10TextFormat21FastFieldValuePrinterESt14default_deleteISC_EEEEvE7destroyISaISt4pairIKS8_SF_EEEEvPT_PNS1_13map_slot_typeIS8_SF_EE.exit.i.i.i.i.i, label %_ZNKSt14default_deleteIKN6google8protobuf10TextFormat21FastFieldValuePrinterEEclEPS4_.exit.i.i.i.i.i.i.i.i.i.i.i.i

_ZNKSt14default_deleteIKN6google8protobuf10TextFormat21FastFieldValuePrinterEEclEPS4_.exit.i.i.i.i.i.i.i.i.i.i.i.i: ; preds = %if.then.i.i.i.i14.i
  %vtable.i.i.i.i.i.i.i.i.i.i.i.i17.i = load ptr, ptr %20, align 8
  %vfn.i.i.i.i.i.i.i.i.i.i.i.i18.i = getelementptr inbounds i8, ptr %vtable.i.i.i.i.i.i.i.i.i.i.i.i17.i, i64 8
  %21 = load ptr, ptr %vfn.i.i.i.i.i.i.i.i.i.i.i.i18.i, align 8
  call void %21(ptr noundef nonnull align 8 dereferenceable(8) %20) #34
  br label %_ZN4absl12lts_2023080218container_internal20common_policy_traitsINS1_17FlatHashMapPolicyIPKN6google8protobuf15FieldDescriptorESt10unique_ptrIKNS5_10TextFormat21FastFieldValuePrinterESt14default_deleteISC_EEEEvE7destroyISaISt4pairIKS8_SF_EEEEvPT_PNS1_13map_slot_typeIS8_SF_EE.exit.i.i.i.i.i

_ZN4absl12lts_2023080218container_internal20common_policy_traitsINS1_17FlatHashMapPolicyIPKN6google8protobuf15FieldDescriptorESt10unique_ptrIKNS5_10TextFormat21FastFieldValuePrinterESt14default_deleteISC_EEEEvE7destroyISaISt4pairIKS8_SF_EEEEvPT_PNS1_13map_slot_typeIS8_SF_EE.exit.i.i.i.i.i: ; preds = %_ZNKSt14default_deleteIKN6google8protobuf10TextFormat21FastFieldValuePrinterEEclEPS4_.exit.i.i.i.i.i.i.i.i.i.i.i.i, %if.then.i.i.i.i14.i
  store ptr null, ptr %second.i.i.i.i.i.i.i.i.i.i15.i, align 8
  br label %for.inc.i.i.i.i9.i

for.inc.i.i.i.i9.i:                               ; preds = %_ZN4absl12lts_2023080218container_internal20common_policy_traitsINS1_17FlatHashMapPolicyIPKN6google8protobuf15FieldDescriptorESt10unique_ptrIKNS5_10TextFormat21FastFieldValuePrinterESt14default_deleteISC_EEEEvE7destroyISaISt4pairIKS8_SF_EEEEvPT_PNS1_13map_slot_typeIS8_SF_EE.exit.i.i.i.i.i, %for.body.i.i.i.i5.i
  %inc.i.i.i.i10.i = add nuw i64 %i.05.i.i.i.i6.i, 1
  %cmp.not.i.i.i.i11.i = icmp eq i64 %inc.i.i.i.i10.i, %16
  br i1 %cmp.not.i.i.i.i11.i, label %invoke.cont13.i.i.i12.i, label %for.body.i.i.i.i5.i, !llvm.loop !6

invoke.cont13.i.i.i12.i:                          ; preds = %for.inc.i.i.i.i9.i
  %22 = load ptr, ptr %custom_printers_.i, align 8
  %add.ptr.i.i.i.i13.i = getelementptr inbounds i8, ptr %22, i64 -8
  call void @_ZdlPv(ptr noundef nonnull %add.ptr.i.i.i.i13.i) #35
  br label %_ZN4absl12lts_2023080213flat_hash_mapIPKN6google8protobuf15FieldDescriptorESt10unique_ptrIKNS3_10TextFormat21FastFieldValuePrinterESt14default_deleteISA_EENS0_18container_internal6HashEqIS6_vE4HashENSG_2EqESaISt4pairIKS6_SD_EEED2Ev.exit.i

_ZN4absl12lts_2023080213flat_hash_mapIPKN6google8protobuf15FieldDescriptorESt10unique_ptrIKNS3_10TextFormat21FastFieldValuePrinterESt14default_deleteISA_EENS0_18container_internal6HashEqIS6_vE4HashENSG_2EqESaISt4pairIKS6_SD_EEED2Ev.exit.i: ; preds = %invoke.cont13.i.i.i12.i, %_ZN4absl12lts_2023080213flat_hash_mapIPKN6google8protobuf10DescriptorESt10unique_ptrIKNS3_10TextFormat14MessagePrinterESt14default_deleteISA_EENS0_18container_internal6HashEqIS6_vE4HashENSG_2EqESaISt4pairIKS6_SD_EEED2Ev.exit.i
  %default_field_value_printer_.i = getelementptr inbounds i8, ptr %ref.tmp, i64 32
  %23 = load ptr, ptr %default_field_value_printer_.i, align 8
  %cmp.not.i.i = icmp eq ptr %23, null
  br i1 %cmp.not.i.i, label %_ZN6google8protobuf10TextFormat7PrinterD2Ev.exit, label %_ZNKSt14default_deleteIKN6google8protobuf10TextFormat21FastFieldValuePrinterEEclEPS4_.exit.i.i

_ZNKSt14default_deleteIKN6google8protobuf10TextFormat21FastFieldValuePrinterEEclEPS4_.exit.i.i: ; preds = %_ZN4absl12lts_2023080213flat_hash_mapIPKN6google8protobuf15FieldDescriptorESt10unique_ptrIKNS3_10TextFormat21FastFieldValuePrinterESt14default_deleteISA_EENS0_18container_internal6HashEqIS6_vE4HashENSG_2EqESaISt4pairIKS6_SD_EEED2Ev.exit.i
  %vtable.i.i.i = load ptr, ptr %23, align 8
  %vfn.i.i.i = getelementptr inbounds i8, ptr %vtable.i.i.i, i64 8
  %24 = load ptr, ptr %vfn.i.i.i, align 8
  call void %24(ptr noundef nonnull align 8 dereferenceable(8) %23) #34
  br label %_ZN6google8protobuf10TextFormat7PrinterD2Ev.exit

_ZN6google8protobuf10TextFormat7PrinterD2Ev.exit: ; preds = %_ZN4absl12lts_2023080213flat_hash_mapIPKN6google8protobuf15FieldDescriptorESt10unique_ptrIKNS3_10TextFormat21FastFieldValuePrinterESt14default_deleteISA_EENS0_18container_internal6HashEqIS6_vE4HashENSG_2EqESaISt4pairIKS6_SD_EEED2Ev.exit.i, %_ZNKSt14default_deleteIKN6google8protobuf10TextFormat21FastFieldValuePrinterEEclEPS4_.exit.i.i
  ret i1 %tobool.not.i.i
}